; Function Attrs: mustprogress uwtable
define void @_ZNK5ZXing4OneD13CodabarWriter6encodeERKNSt7__cxx1112basic_stringIcSt11char_traitsIcESaIcEEEii(ptr dead_on_unwind noalias writable sret(%"class.ZXing::BitMatrix") align 8 %0, ptr noundef nonnull readonly align 4 captures(none) dereferenceable(4) %1, ptr noundef nonnull readonly align 8 captures(none) dereferenceable(32) %2, i32 noundef %3, i32 noundef %4) local_unnamed_addr #0 align 2 personality ptr @__gxx_personality_v0 {
  %6 = alloca %"class.std::__cxx11::basic_string", align 8
  call void @llvm.lifetime.start.p0(i64 32, ptr nonnull %6) #15
  %7 = load ptr, ptr %2, align 8, !tbaa !31
  %8 = getelementptr inbounds nuw i8, ptr %2, i64 8
  %9 = load i64, ptr %8, align 8, !tbaa !35
  call void @_ZN5ZXing8FromUtf8B5cxx11ESt17basic_string_viewIcSt11char_traitsIcEE(ptr dead_on_unwind nonnull writable sret(%"class.std::__cxx11::basic_string") align 8 %6, i64 %9, ptr %7)
  invoke void @_ZNK5ZXing4OneD13CodabarWriter6encodeERKNSt7__cxx1112basic_stringIwSt11char_traitsIwESaIwEEEii(ptr dead_on_unwind writable sret(%"class.ZXing::BitMatrix") align 8 %0, ptr noundef nonnull align 4 dereferenceable(4) %1, ptr noundef nonnull align 8 dereferenceable(32) %6, i32 noundef %3, i32 noundef %4)
          to label %10 unwind label %20

10:                                               ; preds = %5
  %11 = load ptr, ptr %6, align 8, !tbaa !9
  %12 = getelementptr inbounds nuw i8, ptr %6, i64 16
  %13 = icmp eq ptr %11, %12
  br i1 %13, label %_ZNKSt7__cxx1112basic_stringIwSt11char_traitsIwESaIwEE11_M_is_localEv.exit.thread.i.i, label %_ZNKSt7__cxx1112basic_stringIwSt11char_traitsIwESaIwEE11_M_is_localEv.exit.i.i

_ZNKSt7__cxx1112basic_stringIwSt11char_traitsIwESaIwEE11_M_is_localEv.exit.thread.i.i: ; preds = %10
  %14 = getelementptr inbounds nuw i8, ptr %6, i64 8
  %15 = load i64, ptr %14, align 8, !tbaa !12
  %16 = icmp ult i64 %15, 4
  call void @llvm.assume(i1 %16)
  br label %_ZNSt7__cxx1112basic_stringIwSt11char_traitsIwESaIwEED2Ev.exit

_ZNKSt7__cxx1112basic_stringIwSt11char_traitsIwESaIwEE11_M_is_localEv.exit.i.i: ; preds = %10
  %17 = load i64, ptr %12, align 8, !tbaa !14
  %18 = shl i64 %17, 2
  %19 = add i64 %18, 4
  call void @_ZdlPvm(ptr noundef %11, i64 noundef %19) #18
  br label %_ZNSt7__cxx1112basic_stringIwSt11char_traitsIwESaIwEED2Ev.exit

_ZNSt7__cxx1112basic_stringIwSt11char_traitsIwESaIwEED2Ev.exit: ; preds = %_ZNKSt7__cxx1112basic_stringIwSt11char_traitsIwESaIwEE11_M_is_localEv.exit.thread.i.i, %_ZNKSt7__cxx1112basic_stringIwSt11char_traitsIwESaIwEE11_M_is_localEv.exit.i.i
  call void @llvm.lifetime.end.p0(i64 32, ptr nonnull %6) #15
  ret void

20:                                               ; preds = %5
  %21 = landingpad { ptr, i32 }
          cleanup
  %22 = load ptr, ptr %6, align 8, !tbaa !9
  %23 = getelementptr inbounds nuw i8, ptr %6, i64 16
  %24 = icmp eq ptr %22, %23
  br i1 %24, label %_ZNKSt7__cxx1112basic_stringIwSt11char_traitsIwESaIwEE11_M_is_localEv.exit.thread.i.i6, label %_ZNKSt7__cxx1112basic_stringIwSt11char_traitsIwESaIwEE11_M_is_localEv.exit.i.i5

_ZNKSt7__cxx1112basic_stringIwSt11char_traitsIwESaIwEE11_M_is_localEv.exit.thread.i.i6: ; preds = %20
  %25 = getelementptr inbounds nuw i8, ptr %6, i64 8
  %26 = load i64, ptr %25, align 8, !tbaa !12
  %27 = icmp ult i64 %26, 4
  call void @llvm.assume(i1 %27)
  br label %_ZNSt7__cxx1112basic_stringIwSt11char_traitsIwESaIwEED2Ev.exit7

_ZNKSt7__cxx1112basic_stringIwSt11char_traitsIwESaIwEE11_M_is_localEv.exit.i.i5: ; preds = %20
  %28 = load i64, ptr %23, align 8, !tbaa !14
  %29 = shl i64 %28, 2
  %30 = add i64 %29, 4
  call void @_ZdlPvm(ptr noundef %22, i64 noundef %30) #18
  br label %_ZNSt7__cxx1112basic_stringIwSt11char_traitsIwESaIwEED2Ev.exit7

_ZNSt7__cxx1112basic_stringIwSt11char_traitsIwESaIwEED2Ev.exit7: ; preds = %_ZNKSt7__cxx1112basic_stringIwSt11char_traitsIwESaIwEE11_M_is_localEv.exit.thread.i.i6, %_ZNKSt7__cxx1112basic_stringIwSt11char_traitsIwESaIwEE11_M_is_localEv.exit.i.i5
  call void @llvm.lifetime.end.p0(i64 32, ptr nonnull %6) #15
  resume { ptr, i32 } %21
}